target datalayout = "e-m:e-p270:32:32-p271:32:32-p272:64:64-i64:64-i128:128-f80:128-n8:16:32:64-S128"
target triple = "x86_64-unknown-linux-gnu"

@_ZTIN19OpenColorIO_v2_4dev9ExceptionE = external constant ptr
@_ZTIN19OpenColorIO_v2_4dev15DynamicPropertyE = linkonce_odr constant { ptr, ptr } { ptr getelementptr inbounds (ptr, ptr @_ZTVN10__cxxabiv117__class_type_infoE, i64 2), ptr @_ZTSN19OpenColorIO_v2_4dev15DynamicPropertyE }, comdat, align 8
@.str.4 = private unnamed_addr constant [40 x i8] c"Unknown DynamicProperty implementation.\00", align 1

; Function Attrs: mustprogress uwtable
define hidden noundef zeroext i1 @_ZN19OpenColorIO_v2_4deveqERKNS_15DynamicPropertyES2_(ptr noundef nonnull align 8 dereferenceable(8) %lhs, ptr noundef nonnull align 8 dereferenceable(8) %rhs) #0 personality ptr @__gxx_personality_v0 {
entry:
  %retval = alloca i1, align 1
  %lhs.addr = alloca ptr, align 8
  %rhs.addr = alloca ptr, align 8
  %plhs = alloca ptr, align 8
  %prhs = alloca ptr, align 8
  %exn.slot = alloca ptr, align 8
  %ehselector.slot = alloca i32, align 4
  store ptr %lhs, ptr %lhs.addr, align 8
  store ptr %rhs, ptr %rhs.addr, align 8
  %0 = load ptr, ptr %lhs.addr, align 8
  %vtable = load ptr, ptr %0, align 8
  %vfn = getelementptr inbounds ptr, ptr %vtable, i64 0
  %1 = load ptr, ptr %vfn, align 8
  %call = call noundef i32 %1(ptr noundef nonnull align 8 dereferenceable(8) %0) #13
  %2 = load ptr, ptr %rhs.addr, align 8
  %vtable1 = load ptr, ptr %2, align 8
  %vfn2 = getelementptr inbounds ptr, ptr %vtable1, i64 0
  %3 = load ptr, ptr %vfn2, align 8
  %call3 = call noundef i32 %3(ptr noundef nonnull align 8 dereferenceable(8) %2) #13
  %cmp = icmp ne i32 %call, %call3
  br i1 %cmp, label %if.then, label %if.end

if.then:                                          ; preds = %entry
  store i1 false, ptr %retval, align 1
  br label %return

if.end:                                           ; preds = %entry
  %4 = load ptr, ptr %lhs.addr, align 8
  %5 = icmp eq ptr %4, null
  br i1 %5, label %dynamic_cast.null, label %dynamic_cast.notnull

dynamic_cast.notnull:                             ; preds = %if.end
  %6 = call ptr @__dynamic_cast(ptr %4, ptr @_ZTIN19OpenColorIO_v2_4dev15DynamicPropertyE, ptr @_ZTIN19OpenColorIO_v2_4dev19DynamicPropertyImplE, i64 0) #13
  br label %dynamic_cast.end

dynamic_cast.null:                                ; preds = %if.end
  br label %dynamic_cast.end

dynamic_cast.end:                                 ; preds = %dynamic_cast.null, %dynamic_cast.notnull
  %7 = phi ptr [ %6, %dynamic_cast.notnull ], [ null, %dynamic_cast.null ]
  store ptr %7, ptr %plhs, align 8
  %8 = load ptr, ptr %rhs.addr, align 8
  %9 = icmp eq ptr %8, null
  br i1 %9, label %dynamic_cast.null5, label %dynamic_cast.notnull4

dynamic_cast.notnull4:                            ; preds = %dynamic_cast.end
  %10 = call ptr @__dynamic_cast(ptr %8, ptr @_ZTIN19OpenColorIO_v2_4dev15DynamicPropertyE, ptr @_ZTIN19OpenColorIO_v2_4dev19DynamicPropertyImplE, i64 0) #13
  br label %dynamic_cast.end6

dynamic_cast.null5:                               ; preds = %dynamic_cast.end
  br label %dynamic_cast.end6

dynamic_cast.end6:                                ; preds = %dynamic_cast.null5, %dynamic_cast.notnull4
  %11 = phi ptr [ %10, %dynamic_cast.notnull4 ], [ null, %dynamic_cast.null5 ]
  store ptr %11, ptr %prhs, align 8
  %12 = load ptr, ptr %plhs, align 8
  %tobool = icmp ne ptr %12, null
  br i1 %tobool, label %land.lhs.true, label %if.end10

land.lhs.true:                                    ; preds = %dynamic_cast.end6
  %13 = load ptr, ptr %prhs, align 8
  %tobool7 = icmp ne ptr %13, null
  br i1 %tobool7, label %if.then8, label %if.end10

if.then8:                                         ; preds = %land.lhs.true
  %14 = load ptr, ptr %plhs, align 8
  %15 = load ptr, ptr %prhs, align 8
  %call9 = call noundef zeroext i1 @_ZNK19OpenColorIO_v2_4dev19DynamicPropertyImpl6equalsERKS0_(ptr noundef nonnull align 8 dereferenceable(13) %14, ptr noundef nonnull align 8 dereferenceable(13) %15)
  store i1 %call9, ptr %retval, align 1
  br label %return

if.end10:                                         ; preds = %land.lhs.true, %dynamic_cast.end6
  %exception = call ptr @__cxa_allocate_exception(i64 16) #13
  invoke void @_ZN19OpenColorIO_v2_4dev9ExceptionC1EPKc(ptr noundef nonnull align 8 dereferenceable(16) %exception, ptr noundef @.str.4)
          to label %invoke.cont unwind label %lpad

invoke.cont:                                      ; preds = %if.end10
  call void @__cxa_throw(ptr %exception, ptr @_ZTIN19OpenColorIO_v2_4dev9ExceptionE, ptr @_ZN19OpenColorIO_v2_4dev9ExceptionD1Ev) #14
  unreachable

lpad:                                             ; preds = %if.end10
  %16 = landingpad { ptr, i32 }
          cleanup
  %17 = extractvalue { ptr, i32 } %16, 0
  store ptr %17, ptr %exn.slot, align 8
  %18 = extractvalue { ptr, i32 } %16, 1
  store i32 %18, ptr %ehselector.slot, align 4
  call void @__cxa_free_exception(ptr %exception) #13
  br label %eh.resume

return:                                           ; preds = %if.then8, %if.then
  %19 = load i1, ptr %retval, align 1
  ret i1 %19

eh.resume:                                        ; preds = %lpad
  %exn = load ptr, ptr %exn.slot, align 8
  %sel = load i32, ptr %ehselector.slot, align 4
  %lpad.val = insertvalue { ptr, i32 } poison, ptr %exn, 0
  %lpad.val11 = insertvalue { ptr, i32 } %lpad.val, i32 %sel, 1
  resume { ptr, i32 } %lpad.val11
}