; Function Attrs: mustprogress uwtable
define hidden noundef zeroext i1 @_ZN19OpenColorIO_v2_4deveqERKNS_15DynamicPropertyES2_(ptr noundef nonnull align 8 dereferenceable(8) %lhs, ptr noundef nonnull align 8 dereferenceable(8) %rhs) local_unnamed_addr #0 personality ptr @__gxx_personality_v0 {
entry:
  %vtable = load ptr, ptr %lhs, align 8
  %0 = load ptr, ptr %vtable, align 8
  %call = tail call noundef i32 %0(ptr noundef nonnull align 8 dereferenceable(8) %lhs) #20
  %vtable1 = load ptr, ptr %rhs, align 8
  %1 = load ptr, ptr %vtable1, align 8
  %call3 = tail call noundef i32 %1(ptr noundef nonnull align 8 dereferenceable(8) %rhs) #20
  %cmp.not = icmp eq i32 %call, %call3
  br i1 %cmp.not, label %dynamic_cast.notnull, label %return

dynamic_cast.notnull:                             ; preds = %entry
  %2 = tail call ptr @__dynamic_cast(ptr nonnull %lhs, ptr nonnull @_ZTIN19OpenColorIO_v2_4dev15DynamicPropertyE, ptr nonnull @_ZTIN19OpenColorIO_v2_4dev19DynamicPropertyImplE, i64 0) #20
  %3 = tail call ptr @__dynamic_cast(ptr nonnull %rhs, ptr nonnull @_ZTIN19OpenColorIO_v2_4dev15DynamicPropertyE, ptr nonnull @_ZTIN19OpenColorIO_v2_4dev19DynamicPropertyImplE, i64 0) #20
  %tobool = icmp ne ptr %2, null
  %tobool7 = icmp ne ptr %3, null
  %or.cond = select i1 %tobool, i1 %tobool7, i1 false
  br i1 %or.cond, label %if.then8, label %if.end10

if.then8:                                         ; preds = %dynamic_cast.notnull
  %call9 = tail call noundef zeroext i1 @_ZNK19OpenColorIO_v2_4dev19DynamicPropertyImpl6equalsERKS0_(ptr noundef nonnull align 8 dereferenceable(13) %2, ptr noundef nonnull align 8 dereferenceable(13) %3)
  br label %return

if.end10:                                         ; preds = %dynamic_cast.notnull
  %exception = tail call ptr @__cxa_allocate_exception(i64 16) #20
  invoke void @_ZN19OpenColorIO_v2_4dev9ExceptionC1EPKc(ptr noundef nonnull align 8 dereferenceable(16) %exception, ptr noundef nonnull @.str.4)
          to label %invoke.cont unwind label %lpad

invoke.cont:                                      ; preds = %if.end10
  tail call void @__cxa_throw(ptr nonnull %exception, ptr nonnull @_ZTIN19OpenColorIO_v2_4dev9ExceptionE, ptr nonnull @_ZN19OpenColorIO_v2_4dev9ExceptionD1Ev) #21
  unreachable

lpad:                                             ; preds = %if.end10
  %4 = landingpad { ptr, i32 }
          cleanup
  tail call void @__cxa_free_exception(ptr %exception) #20
  resume { ptr, i32 } %4

return:                                           ; preds = %entry, %if.then8
  %retval.0 = phi i1 [ %call9, %if.then8 ], [ false, %entry ]
  ret i1 %retval.0
}